; Function Attrs: nounwind uwtable
define internal noundef i32 @finalize() #0 {
  %1 = load volatile i64, ptr getelementptr inbounds nuw (i8, ptr @prte_mca_iof_prted_component, i64 488), align 8, !tbaa !39
  %2 = icmp eq i64 %1, 0
  br i1 %2, label %._crit_edge, label %.lr.ph

.lr.ph:                                           ; preds = %0, %35
  %3 = load volatile i64, ptr getelementptr inbounds nuw (i8, ptr @prte_mca_iof_prted_component, i64 488), align 8, !tbaa !39
  %4 = add i64 %3, -1
  store volatile i64 %4, ptr getelementptr inbounds nuw (i8, ptr @prte_mca_iof_prted_component, i64 488), align 8, !tbaa !39
  %5 = load ptr, ptr getelementptr inbounds nuw (i8, ptr @prte_mca_iof_prted_component, i64 464), align 8, !tbaa !76
  %6 = getelementptr inbounds nuw i8, ptr %5, i64 128
  %7 = load volatile ptr, ptr %6, align 8, !tbaa !38
  %8 = getelementptr inbounds nuw i8, ptr %5, i64 120
  %9 = load volatile ptr, ptr %8, align 8, !tbaa !35
  %10 = getelementptr inbounds nuw i8, ptr %9, i64 128
  store volatile ptr %7, ptr %10, align 8, !tbaa !38
  %11 = load volatile ptr, ptr %8, align 8, !tbaa !35
  store ptr %11, ptr getelementptr inbounds nuw (i8, ptr @prte_mca_iof_prted_component, i64 464), align 8, !tbaa !76
  %12 = tail call i32 @pthread_mutex_lock(ptr noundef nonnull %5) #11
  %13 = icmp eq i32 %12, 35
  br i1 %13, label %14, label %pmix_obj_update.exit

14:                                               ; preds = %.lr.ph
  %15 = tail call ptr @__errno_location() #12
  store i32 35, ptr %15, align 4, !tbaa !20
  tail call void @perror(ptr noundef nonnull @.str.6) #14
  tail call void @abort() #15
  unreachable

pmix_obj_update.exit:                             ; preds = %.lr.ph
  %16 = getelementptr inbounds nuw i8, ptr %5, i64 48
  %17 = load i32, ptr %16, align 8, !tbaa !24
  %18 = add nsw i32 %17, -1
  store i32 %18, ptr %16, align 8, !tbaa !24
  %19 = tail call i32 @pthread_mutex_unlock(ptr noundef nonnull %5) #11
  %20 = icmp eq i32 %18, 0
  br i1 %20, label %21, label %35

21:                                               ; preds = %pmix_obj_update.exit
  %22 = getelementptr inbounds nuw i8, ptr %5, i64 40
  %23 = load ptr, ptr %22, align 8, !tbaa !23
  %24 = getelementptr inbounds nuw i8, ptr %23, i64 48
  %25 = load ptr, ptr %24, align 8, !tbaa !70
  %26 = load ptr, ptr %25, align 8, !tbaa !26
  %.not6.i = icmp eq ptr %26, null
  br i1 %.not6.i, label %pmix_obj_run_destructors.exit, label %.lr.ph.i

.lr.ph.i:                                         ; preds = %21, %.lr.ph.i
  %27 = phi ptr [ %29, %.lr.ph.i ], [ %26, %21 ]
  %.07.i = phi ptr [ %28, %.lr.ph.i ], [ %25, %21 ]
  tail call void %27(ptr noundef nonnull %5) #11
  %28 = getelementptr inbounds nuw i8, ptr %.07.i, i64 8
  %29 = load ptr, ptr %28, align 8, !tbaa !26
  %.not.i = icmp eq ptr %29, null
  br i1 %.not.i, label %pmix_obj_run_destructors.exit, label %.lr.ph.i, !llvm.loop !71

pmix_obj_run_destructors.exit:                    ; preds = %.lr.ph.i, %21
  %30 = getelementptr inbounds nuw i8, ptr %5, i64 96
  %31 = load ptr, ptr %30, align 8, !tbaa !72
  %.not9 = icmp eq ptr %31, null
  br i1 %.not9, label %34, label %32

32:                                               ; preds = %pmix_obj_run_destructors.exit
  %33 = getelementptr inbounds nuw i8, ptr %5, i64 56
  tail call void %31(ptr noundef nonnull %33, ptr noundef nonnull %5) #11
  br label %35

34:                                               ; preds = %pmix_obj_run_destructors.exit
  tail call void @free(ptr noundef nonnull %5) #11
  br label %35

35:                                               ; preds = %32, %34, %pmix_obj_update.exit
  %36 = load volatile i64, ptr getelementptr inbounds nuw (i8, ptr @prte_mca_iof_prted_component, i64 488), align 8, !tbaa !39
  %37 = icmp eq i64 %36, 0
  br i1 %37, label %._crit_edge, label %.lr.ph, !llvm.loop !77

._crit_edge:                                      ; preds = %35, %0
  %38 = load ptr, ptr getelementptr inbounds nuw (i8, ptr @prte_mca_iof_prted_component, i64 264), align 8, !tbaa !23
  %39 = getelementptr inbounds nuw i8, ptr %38, i64 48
  %40 = load ptr, ptr %39, align 8, !tbaa !70
  %41 = load ptr, ptr %40, align 8, !tbaa !26
  %.not6.i11 = icmp eq ptr %41, null
  br i1 %.not6.i11, label %pmix_obj_run_destructors.exit15, label %.lr.ph.i12

.lr.ph.i12:                                       ; preds = %._crit_edge, %.lr.ph.i12
  %42 = phi ptr [ %44, %.lr.ph.i12 ], [ %41, %._crit_edge ]
  %.07.i13 = phi ptr [ %43, %.lr.ph.i12 ], [ %40, %._crit_edge ]
  tail call void %42(ptr noundef nonnull getelementptr inbounds nuw (i8, ptr @prte_mca_iof_prted_component, i64 224)) #11
  %43 = getelementptr inbounds nuw i8, ptr %.07.i13, i64 8
  %44 = load ptr, ptr %43, align 8, !tbaa !26
  %.not.i14 = icmp eq ptr %44, null
  br i1 %.not.i14, label %pmix_obj_run_destructors.exit15, label %.lr.ph.i12, !llvm.loop !71

pmix_obj_run_destructors.exit15:                  ; preds = %.lr.ph.i12, %._crit_edge
  %45 = load i32, ptr @prte_rml_base, align 8, !tbaa !3
  %or.cond = icmp ult i32 %45, 64
  br i1 %or.cond, label %46, label %52

46:                                               ; preds = %pmix_obj_run_destructors.exit15
  %47 = zext nneg i32 %45 to i64
  %48 = getelementptr inbounds nuw [0 x %struct.pmix_output_desc_t], ptr @pmix_output_info, i64 0, i64 %47, i32 2
  %49 = load i32, ptr %48, align 4, !tbaa !17
  %50 = icmp sgt i32 %49, 1
  br i1 %50, label %51, label %52

51:                                               ; preds = %46
  tail call void (i32, ptr, ...) @pmix_output(i32 noundef %45, ptr noundef nonnull @.str.14, i32 noundef 3, ptr noundef nonnull @.str.1, ptr noundef nonnull @__func__.finalize, i32 noundef 295) #11
  br label %52

52:                                               ; preds = %51, %46, %pmix_obj_run_destructors.exit15
  tail call void @prte_rml_recv_cancel(ptr noundef nonnull @prte_name_wildcard, i32 noundef 3) #11
  ret i32 0
}